; Function Attrs: mustprogress uwtable
define dso_local noundef nonnull ptr @_ZN16VariableSelector26make_dummy_static_variableERKNSt7__cxx1112basic_stringIcSt11char_traitsIcESaIcEEE(ptr noundef nonnull align 8 dereferenceable(32) %0) local_unnamed_addr #4 align 2 personality ptr @__gxx_personality_v0 {
  %2 = alloca %class.CVQualifiers, align 8
  call void @_ZN12CVQualifiersC1Ev(ptr noundef nonnull align 8 dereferenceable(96) %2)
  %3 = invoke noalias noundef nonnull dereferenceable(200) ptr @_Znwm(i64 noundef 200) #20
          to label %4 unwind label %6

4:                                                ; preds = %1
  invoke void @_ZN8VariableC1ERKNSt7__cxx1112basic_stringIcSt11char_traitsIcESaIcEEEPK4TypePK10ExpressionPK12CVQualifiers(ptr noundef nonnull align 8 dereferenceable(200) %3, ptr noundef nonnull align 8 dereferenceable(32) %0, ptr noundef null, ptr noundef null, ptr noundef nonnull %2)
          to label %5 unwind label %8

5:                                                ; preds = %4
  call void @_ZN12CVQualifiersD1Ev(ptr noundef nonnull align 8 dereferenceable(96) %2) #19
  ret ptr %3

6:                                                ; preds = %1
  %7 = landingpad { ptr, i32 }
          cleanup
  br label %10

8:                                                ; preds = %4
  %9 = landingpad { ptr, i32 }
          cleanup
  call void @_ZdlPv(ptr noundef nonnull %3) #18
  br label %10

10:                                               ; preds = %8, %6
  %.pn = phi { ptr, i32 } [ %9, %8 ], [ %7, %6 ]
  call void @_ZN12CVQualifiersD1Ev(ptr noundef nonnull align 8 dereferenceable(96) %2) #19
  resume { ptr, i32 } %.pn
}